; ModuleID = 'source-C-CXX/41/1123.cpp'
source_filename = "source-C-CXX/41/1123.cpp"
target datalayout = "e-m:e-p270:32:32-p271:32:32-p272:64:64-i64:64-f80:128-n8:16:32:64-S128"
target triple = "x86_64-pc-linux-gnu"

%"class.std::ios_base::Init" = type { i8 }
%"class.std::basic_istream" = type { i32 (...)**, i64, %"class.std::basic_ios" }
%"class.std::basic_ios" = type { %"class.std::ios_base", %"class.std::basic_ostream"*, i8, i8, %"class.std::basic_streambuf"*, %"class.std::ctype"*, %"class.std::num_put"*, %"class.std::num_get"* }
%"class.std::ios_base" = type { i32 (...)**, i64, i64, i32, i32, i32, %"struct.std::ios_base::_Callback_list"*, %"struct.std::ios_base::_Words", [8 x %"struct.std::ios_base::_Words"], i32, %"struct.std::ios_base::_Words"*, %"class.std::locale" }
%"struct.std::ios_base::_Callback_list" = type { %"struct.std::ios_base::_Callback_list"*, void (i32, %"class.std::ios_base"*, i32)*, i32, i32 }
%"struct.std::ios_base::_Words" = type { i8*, i64 }
%"class.std::locale" = type { %"class.std::locale::_Impl"* }
%"class.std::locale::_Impl" = type { i32, %"class.std::locale::facet"**, i64, %"class.std::locale::facet"**, i8** }
%"class.std::locale::facet" = type <{ i32 (...)**, i32, [4 x i8] }>
%"class.std::basic_ostream" = type { i32 (...)**, %"class.std::basic_ios" }
%"class.std::basic_streambuf" = type { i32 (...)**, i8*, i8*, i8*, i8*, i8*, i8*, %"class.std::locale" }
%"class.std::ctype" = type <{ %"class.std::locale::facet.base", [4 x i8], %struct.__locale_struct*, i8, [7 x i8], i32*, i32*, i16*, i8, [256 x i8], [256 x i8], i8, [6 x i8] }>
%"class.std::locale::facet.base" = type <{ i32 (...)**, i32 }>
%struct.__locale_struct = type { [13 x %struct.__locale_data*], i16*, i32*, i32*, [13 x i8*] }
%struct.__locale_data = type opaque
%"class.std::num_put" = type { %"class.std::locale::facet.base", [4 x i8] }
%"class.std::num_get" = type { %"class.std::locale::facet.base", [4 x i8] }

@_ZStL8__ioinit = internal global %"class.std::ios_base::Init" zeroinitializer, align 1
@__dso_handle = external hidden global i8
@_ZSt3cin = external global %"class.std::basic_istream", align 8
@_ZSt4cout = external global %"class.std::basic_ostream", align 8
@llvm.global_ctors = appending global [1 x { i32, void ()*, i8* }] [{ i32, void ()*, i8* } { i32 65535, void ()* @_GLOBAL__sub_I_1123.cpp, i8* null }]

declare void @_ZNSt8ios_base4InitC1Ev(%"class.std::ios_base::Init"* nonnull align 1 dereferenceable(1)) unnamed_addr #0

; Function Attrs: nounwind
declare void @_ZNSt8ios_base4InitD1Ev(%"class.std::ios_base::Init"* nonnull align 1 dereferenceable(1)) unnamed_addr #1

; Function Attrs: nofree nounwind
declare i32 @__cxa_atexit(void (i8*)*, i8*, i8*) local_unnamed_addr #2

; Function Attrs: mustprogress norecurse sspstrong uwtable
define dso_local i32 @main() local_unnamed_addr #3 {
  %1 = alloca i8, align 1
  %2 = alloca i32, align 4
  %3 = alloca i32, align 4
  %4 = alloca [100000 x i32], align 16
  %5 = bitcast i32* %2 to i8*
  call void @llvm.lifetime.start.p0i8(i64 4, i8* nonnull %5) #6
  store i32 0, i32* %2, align 4, !tbaa !5
  %6 = bitcast i32* %3 to i8*
  call void @llvm.lifetime.start.p0i8(i64 4, i8* nonnull %6) #6
  store i32 0, i32* %3, align 4, !tbaa !5
  %7 = bitcast [100000 x i32]* %4 to i8*
  call void @llvm.lifetime.start.p0i8(i64 400000, i8* nonnull %7) #6
  %8 = call nonnull align 8 dereferenceable(16) %"class.std::basic_istream"* @_ZNSirsERi(%"class.std::basic_istream"* nonnull align 8 dereferenceable(16) @_ZSt3cin, i32* nonnull align 4 dereferenceable(4) %2)
  %9 = load i32, i32* %2, align 4, !tbaa !5
  %10 = icmp sgt i32 %9, 0
  br i1 %10, label %11, label %19

11:                                               ; preds = %0, %11
  %12 = phi i64 [ %15, %11 ], [ 0, %0 ]
  %13 = getelementptr inbounds [100000 x i32], [100000 x i32]* %4, i64 0, i64 %12
  %14 = call nonnull align 8 dereferenceable(16) %"class.std::basic_istream"* @_ZNSirsERi(%"class.std::basic_istream"* nonnull align 8 dereferenceable(16) @_ZSt3cin, i32* nonnull align 4 dereferenceable(4) %13)
  %15 = add nuw nsw i64 %12, 1
  %16 = load i32, i32* %2, align 4, !tbaa !5
  %17 = sext i32 %16 to i64
  %18 = icmp slt i64 %15, %17
  br i1 %18, label %11, label %19, !llvm.loop !9

19:                                               ; preds = %11, %0
  %20 = call nonnull align 8 dereferenceable(16) %"class.std::basic_istream"* @_ZNSirsERi(%"class.std::basic_istream"* nonnull align 8 dereferenceable(16) @_ZSt3cin, i32* nonnull align 4 dereferenceable(4) %3)
  %21 = load i32, i32* %3, align 4, !tbaa !5
  %22 = load i32, i32* %2, align 4
  %23 = sext i32 %22 to i64
  br label %24

24:                                               ; preds = %24, %19
  %25 = phi i64 [ %31, %24 ], [ 0, %19 ]
  %26 = getelementptr inbounds [100000 x i32], [100000 x i32]* %4, i64 0, i64 %25
  %27 = load i32, i32* %26, align 4, !tbaa !5
  %28 = icmp ne i32 %27, %21
  %29 = icmp slt i64 %25, %23
  %30 = select i1 %28, i1 %29, i1 false
  %31 = add nuw nsw i64 %25, 1
  br i1 %30, label %24, label %32, !llvm.loop !11

32:                                               ; preds = %24
  %33 = trunc i64 %25 to i32
  %34 = icmp sgt i32 %22, %33
  br i1 %34, label %35, label %42

35:                                               ; preds = %32, %59
  %36 = phi i32 [ %61, %59 ], [ 0, %32 ]
  %37 = phi i32 [ %66, %59 ], [ %33, %32 ]
  %38 = sext i32 %37 to i64
  %39 = getelementptr inbounds [100000 x i32], [100000 x i32]* %4, i64 0, i64 %38
  %40 = load i32, i32* %39, align 4, !tbaa !5
  %41 = icmp eq i32 %40, %21
  br i1 %41, label %49, label %59

42:                                               ; preds = %59, %32
  %43 = phi i32 [ 0, %32 ], [ %61, %59 ]
  %44 = xor i32 %43, -1
  %45 = add i32 %22, %44
  %46 = icmp sgt i32 %45, 0
  br i1 %46, label %47, label %76

47:                                               ; preds = %42
  %48 = zext i32 %45 to i64
  br label %68

49:                                               ; preds = %35, %49
  %50 = phi i64 [ %52, %49 ], [ %38, %35 ]
  %51 = phi i32 [ %53, %49 ], [ %36, %35 ]
  %52 = add nsw i64 %50, 1
  %53 = add nsw i32 %51, 1
  %54 = getelementptr inbounds [100000 x i32], [100000 x i32]* %4, i64 0, i64 %52
  %55 = load i32, i32* %54, align 4, !tbaa !5
  %56 = icmp eq i32 %55, %21
  br i1 %56, label %49, label %57, !llvm.loop !12

57:                                               ; preds = %49
  %58 = trunc i64 %52 to i32
  br label %59

59:                                               ; preds = %57, %35
  %60 = phi i32 [ %37, %35 ], [ %58, %57 ]
  %61 = phi i32 [ %36, %35 ], [ %53, %57 ]
  %62 = phi i32 [ %40, %35 ], [ %55, %57 ]
  %63 = sub nsw i32 %60, %61
  %64 = sext i32 %63 to i64
  %65 = getelementptr inbounds [100000 x i32], [100000 x i32]* %4, i64 0, i64 %64
  store i32 %62, i32* %65, align 4, !tbaa !5
  %66 = add nsw i32 %60, 1
  %67 = icmp slt i32 %66, %22
  br i1 %67, label %35, label %42, !llvm.loop !13

68:                                               ; preds = %47, %68
  %69 = phi i64 [ 0, %47 ], [ %74, %68 ]
  %70 = getelementptr inbounds [100000 x i32], [100000 x i32]* %4, i64 0, i64 %69
  %71 = load i32, i32* %70, align 4, !tbaa !5
  %72 = call nonnull align 8 dereferenceable(8) %"class.std::basic_ostream"* @_ZNSolsEi(%"class.std::basic_ostream"* nonnull align 8 dereferenceable(8) @_ZSt4cout, i32 %71)
  call void @llvm.lifetime.start.p0i8(i64 1, i8* nonnull %1)
  store i8 32, i8* %1, align 1, !tbaa !14
  %73 = call nonnull align 8 dereferenceable(8) %"class.std::basic_ostream"* @_ZSt16__ostream_insertIcSt11char_traitsIcEERSt13basic_ostreamIT_T0_ES6_PKS3_l(%"class.std::basic_ostream"* nonnull align 8 dereferenceable(8) %72, i8* nonnull %1, i64 1)
  call void @llvm.lifetime.end.p0i8(i64 1, i8* nonnull %1)
  %74 = add nuw nsw i64 %69, 1
  %75 = icmp eq i64 %74, %48
  br i1 %75, label %76, label %68, !llvm.loop !15

76:                                               ; preds = %68, %42
  %77 = sext i32 %45 to i64
  %78 = getelementptr inbounds [100000 x i32], [100000 x i32]* %4, i64 0, i64 %77
  %79 = load i32, i32* %78, align 4, !tbaa !5
  %80 = call nonnull align 8 dereferenceable(8) %"class.std::basic_ostream"* @_ZNSolsEi(%"class.std::basic_ostream"* nonnull align 8 dereferenceable(8) @_ZSt4cout, i32 %79)
  call void @llvm.lifetime.end.p0i8(i64 400000, i8* nonnull %7) #6
  call void @llvm.lifetime.end.p0i8(i64 4, i8* nonnull %6) #6
  call void @llvm.lifetime.end.p0i8(i64 4, i8* nonnull %5) #6
  ret i32 0
}

; Function Attrs: argmemonly mustprogress nofree nosync nounwind willreturn
declare void @llvm.lifetime.start.p0i8(i64 immarg, i8* nocapture) #4

declare nonnull align 8 dereferenceable(16) %"class.std::basic_istream"* @_ZNSirsERi(%"class.std::basic_istream"* nonnull align 8 dereferenceable(16), i32* nonnull align 4 dereferenceable(4)) local_unnamed_addr #0

declare nonnull align 8 dereferenceable(8) %"class.std::basic_ostream"* @_ZNSolsEi(%"class.std::basic_ostream"* nonnull align 8 dereferenceable(8), i32) local_unnamed_addr #0

; Function Attrs: argmemonly mustprogress nofree nosync nounwind willreturn
declare void @llvm.lifetime.end.p0i8(i64 immarg, i8* nocapture) #4

declare nonnull align 8 dereferenceable(8) %"class.std::basic_ostream"* @_ZSt16__ostream_insertIcSt11char_traitsIcEERSt13basic_ostreamIT_T0_ES6_PKS3_l(%"class.std::basic_ostream"* nonnull align 8 dereferenceable(8), i8*, i64) local_unnamed_addr #0

; Function Attrs: sspstrong uwtable
define internal void @_GLOBAL__sub_I_1123.cpp() #5 section ".text.startup" {
  tail call void @_ZNSt8ios_base4InitC1Ev(%"class.std::ios_base::Init"* nonnull align 1 dereferenceable(1) @_ZStL8__ioinit)
  %1 = tail call i32 @__cxa_atexit(void (i8*)* bitcast (void (%"class.std::ios_base::Init"*)* @_ZNSt8ios_base4InitD1Ev to void (i8*)*), i8* getelementptr inbounds (%"class.std::ios_base::Init", %"class.std::ios_base::Init"* @_ZStL8__ioinit, i64 0, i32 0), i8* nonnull @__dso_handle) #6
  ret void
}


!llvm.module.flags = !{!0, !1, !2, !3}
!llvm.ident = !{!4}

!0 = !{i32 1, !"wchar_size", i32 4}
!1 = !{i32 7, !"PIC Level", i32 2}
!2 = !{i32 7, !"PIE Level", i32 2}
!3 = !{i32 7, !"uwtable", i32 1}
!4 = !{!"clang version 13.0.0"}
!5 = !{!6, !6, i64 0}
!6 = !{!"int", !7, i64 0}
!7 = !{!"omnipotent char", !8, i64 0}
!8 = !{!"Simple C++ TBAA"}
!9 = distinct !{!9, !10}
!10 = !{!"llvm.loop.mustprogress"}
!11 = distinct !{!11, !10}
!12 = distinct !{!12, !10}
!13 = distinct !{!13, !10}
!14 = !{!7, !7, i64 0}
!15 = distinct !{!15, !10}
